; Function Attrs: nounwind uwtable
define ptr @X509_STORE_CTX_get1_chain(ptr noundef readonly captures(none) %0) local_unnamed_addr #0 {
  %2 = getelementptr inbounds nuw i8, ptr %0, i64 152
  %3 = load ptr, ptr %2, align 8, !tbaa !56
  %4 = icmp eq ptr %3, null
  br i1 %4, label %7, label %5

5:                                                ; preds = %1
  %6 = tail call ptr @X509_chain_up_ref(ptr noundef nonnull %3) #10
  br label %7

7:                                                ; preds = %1, %5
  %.0 = phi ptr [ %6, %5 ], [ null, %1 ]
  ret ptr %.0
}